target datalayout = "e-m:e-p270:32:32-p271:32:32-p272:64:64-i64:64-i128:128-f80:128-n8:16:32:64-S128"
target triple = "x86_64-pc-linux-gnu"

@hf_mpeg_descr_multilng_srv_name_desc_iso639_language_code = internal global i32 0, align 4
@hf_mpeg_descr_multilng_srv_name_desc_service_provider_name_length = internal global i32 0, align 4
@hf_mpeg_descr_multilng_srv_name_desc_service_provider_name_encoding = internal global i32 0, align 4
@hf_mpeg_descr_multilng_srv_name_desc_service_provider_name = internal global i32 0, align 4
@hf_mpeg_descr_multilng_srv_name_desc_service_name_length = internal global i32 0, align 4
@hf_mpeg_descr_multilng_srv_name_desc_service_name_encoding = internal global i32 0, align 4
@hf_mpeg_descr_multilng_srv_name_desc_service_name = internal global i32 0, align 4
@ett_mpeg_descriptor_multilng_srv_name_desc_lng = internal global i32 0, align 4
@.str.759 = private unnamed_addr constant [14 x i8] c"Language \22%s\22\00", align 1

; Function Attrs: null_pointer_is_valid sspstrong uwtable
define internal i32 @proto_mpeg_descriptor_dissect_multilng_srv_name_desc_measure_lng_len(ptr noundef %0, i32 noundef %1, i32 noundef %2) #1 {
  %4 = alloca i32, align 4
  %5 = alloca ptr, align 8
  %6 = alloca i32, align 4
  %7 = alloca i32, align 4
  %8 = alloca i32, align 4
  %9 = alloca i32, align 4
  %10 = alloca i32, align 4
  %11 = alloca i32, align 4
  %12 = alloca i32, align 4
  store ptr %0, ptr %5, align 8
  store i32 %1, ptr %6, align 4
  store i32 %2, ptr %7, align 4
  call void @llvm.lifetime.start.p0(i64 4, ptr %8) #4
  %13 = load i32, ptr %6, align 4
  store i32 %13, ptr %8, align 4
  call void @llvm.lifetime.start.p0(i64 4, ptr %9) #4
  %14 = load i32, ptr %7, align 4
  store i32 %14, ptr %9, align 4
  %15 = load i32, ptr %9, align 4
  %16 = icmp ult i32 %15, 3
  br i1 %16, label %17, label %21

17:                                               ; preds = %3
  %18 = load i32, ptr %8, align 4
  %19 = load i32, ptr %6, align 4
  %20 = sub i32 %18, %19
  store i32 %20, ptr %4, align 4
  store i32 1, ptr %10, align 4
  br label %87

21:                                               ; preds = %3
  %22 = load i32, ptr %9, align 4
  %23 = sub i32 %22, 3
  store i32 %23, ptr %9, align 4
  %24 = load i32, ptr %8, align 4
  %25 = add i32 %24, 3
  store i32 %25, ptr %8, align 4
  %26 = load i32, ptr %9, align 4
  %27 = icmp ult i32 %26, 1
  br i1 %27, label %28, label %32

28:                                               ; preds = %21
  %29 = load i32, ptr %8, align 4
  %30 = load i32, ptr %6, align 4
  %31 = sub i32 %29, %30
  store i32 %31, ptr %4, align 4
  store i32 1, ptr %10, align 4
  br label %87

32:                                               ; preds = %21
  call void @llvm.lifetime.start.p0(i64 4, ptr %11) #4
  %33 = load ptr, ptr %5, align 8
  %34 = load i32, ptr %8, align 4
  %35 = call zeroext i8 @tvb_get_uint8(ptr noundef %33, i32 noundef %34)
  %36 = zext i8 %35 to i32
  store i32 %36, ptr %11, align 4
  %37 = load i32, ptr %9, align 4
  %38 = sub i32 %37, 1
  store i32 %38, ptr %9, align 4
  %39 = load i32, ptr %8, align 4
  %40 = add i32 %39, 1
  store i32 %40, ptr %8, align 4
  %41 = load i32, ptr %11, align 4
  %42 = load i32, ptr %9, align 4
  %43 = icmp ult i32 %41, %42
  br i1 %43, label %44, label %46

44:                                               ; preds = %32
  %45 = load i32, ptr %11, align 4
  br label %48

46:                                               ; preds = %32
  %47 = load i32, ptr %9, align 4
  br label %48

48:                                               ; preds = %46, %44
  %49 = phi i32 [ %45, %44 ], [ %47, %46 ]
  store i32 %49, ptr %11, align 4
  %50 = load i32, ptr %11, align 4
  %51 = load i32, ptr %9, align 4
  %52 = sub i32 %51, %50
  store i32 %52, ptr %9, align 4
  %53 = load i32, ptr %11, align 4
  %54 = load i32, ptr %8, align 4
  %55 = add i32 %54, %53
  store i32 %55, ptr %8, align 4
  %56 = load i32, ptr %9, align 4
  %57 = icmp ult i32 %56, 1
  br i1 %57, label %58, label %62

58:                                               ; preds = %48
  %59 = load i32, ptr %8, align 4
  %60 = load i32, ptr %6, align 4
  %61 = sub i32 %59, %60
  store i32 %61, ptr %4, align 4
  store i32 1, ptr %10, align 4
  br label %86

62:                                               ; preds = %48
  call void @llvm.lifetime.start.p0(i64 4, ptr %12) #4
  %63 = load ptr, ptr %5, align 8
  %64 = load i32, ptr %8, align 4
  %65 = call zeroext i8 @tvb_get_uint8(ptr noundef %63, i32 noundef %64)
  %66 = zext i8 %65 to i32
  store i32 %66, ptr %12, align 4
  %67 = load i32, ptr %9, align 4
  %68 = sub i32 %67, 1
  store i32 %68, ptr %9, align 4
  %69 = load i32, ptr %8, align 4
  %70 = add i32 %69, 1
  store i32 %70, ptr %8, align 4
  %71 = load i32, ptr %12, align 4
  %72 = load i32, ptr %9, align 4
  %73 = icmp ult i32 %71, %72
  br i1 %73, label %74, label %76

74:                                               ; preds = %62
  %75 = load i32, ptr %12, align 4
  br label %78

76:                                               ; preds = %62
  %77 = load i32, ptr %9, align 4
  br label %78

78:                                               ; preds = %76, %74
  %79 = phi i32 [ %75, %74 ], [ %77, %76 ]
  store i32 %79, ptr %12, align 4
  %80 = load i32, ptr %12, align 4
  %81 = load i32, ptr %8, align 4
  %82 = add i32 %81, %80
  store i32 %82, ptr %8, align 4
  %83 = load i32, ptr %8, align 4
  %84 = load i32, ptr %6, align 4
  %85 = sub i32 %83, %84
  store i32 %85, ptr %4, align 4
  store i32 1, ptr %10, align 4
  call void @llvm.lifetime.end.p0(i64 4, ptr %12) #4
  br label %86

86:                                               ; preds = %78, %58
  call void @llvm.lifetime.end.p0(i64 4, ptr %11) #4
  br label %87

87:                                               ; preds = %86, %28, %17
  call void @llvm.lifetime.end.p0(i64 4, ptr %9) #4
  call void @llvm.lifetime.end.p0(i64 4, ptr %8) #4
  %88 = load i32, ptr %4, align 4
  ret i32 %88
}

; Function Attrs: null_pointer_is_valid sspstrong uwtable
define internal void @proto_mpeg_descriptor_dissect_multilng_srv_name_desc(ptr noundef %0, i32 noundef %1, i32 noundef %2, ptr noundef %3) #1 {
  %5 = alloca ptr, align 8
  %6 = alloca i32, align 4
  %7 = alloca i32, align 4
  %8 = alloca ptr, align 8
  %9 = alloca i32, align 4
  %10 = alloca ptr, align 8
  %11 = alloca ptr, align 8
  %12 = alloca ptr, align 8
  %13 = alloca i32, align 4
  %14 = alloca i32, align 4
  %15 = alloca i32, align 4
  %16 = alloca i32, align 4
  %17 = alloca i32, align 4
  %18 = alloca i32, align 4
  store ptr %0, ptr %5, align 8
  store i32 %1, ptr %6, align 4
  store i32 %2, ptr %7, align 4
  store ptr %3, ptr %8, align 8
  call void @llvm.lifetime.start.p0(i64 4, ptr %9) #4
  %19 = load i32, ptr %7, align 4
  store i32 %19, ptr %9, align 4
  br label %20

20:                                               ; preds = %174, %4
  %21 = load i32, ptr %9, align 4
  %22 = icmp ugt i32 %21, 0
  br i1 %22, label %23, label %175

23:                                               ; preds = %20
  call void @llvm.lifetime.start.p0(i64 8, ptr %10) #4
  call void @llvm.lifetime.start.p0(i64 8, ptr %11) #4
  call void @llvm.lifetime.start.p0(i64 8, ptr %12) #4
  %24 = load i32, ptr %9, align 4
  %25 = icmp ult i32 %24, 3
  br i1 %25, label %26, label %27

26:                                               ; preds = %23
  store i32 1, ptr %13, align 4
  br label %172

27:                                               ; preds = %23
  call void @llvm.lifetime.start.p0(i64 4, ptr %14) #4
  %28 = load ptr, ptr %5, align 8
  %29 = load i32, ptr %6, align 4
  %30 = load i32, ptr %9, align 4
  %31 = call i32 @proto_mpeg_descriptor_dissect_multilng_srv_name_desc_measure_lng_len(ptr noundef %28, i32 noundef %29, i32 noundef %30)
  store i32 %31, ptr %14, align 4
  %32 = load ptr, ptr %8, align 8
  %33 = load ptr, ptr %5, align 8
  %34 = load i32, ptr %6, align 4
  %35 = load i32, ptr %14, align 4
  %36 = load i32, ptr @ett_mpeg_descriptor_multilng_srv_name_desc_lng, align 4
  %37 = call ptr @proto_tree_add_subtree(ptr noundef %32, ptr noundef %33, i32 noundef %34, i32 noundef %35, i32 noundef %36, ptr noundef %12, ptr noundef null)
  store ptr %37, ptr %11, align 8
  %38 = load ptr, ptr %11, align 8
  %39 = load i32, ptr @hf_mpeg_descr_multilng_srv_name_desc_iso639_language_code, align 4
  %40 = load ptr, ptr %5, align 8
  %41 = load i32, ptr %6, align 4
  %42 = call ptr @wmem_packet_scope()
  %43 = call ptr @proto_tree_add_item_ret_display_string(ptr noundef %38, i32 noundef %39, ptr noundef %40, i32 noundef %41, i32 noundef 3, i32 noundef 0, ptr noundef %42, ptr noundef %10)
  %44 = load ptr, ptr %12, align 8
  %45 = load ptr, ptr %10, align 8
  call void (ptr, ptr, ...) @proto_item_set_text(ptr noundef %44, ptr noundef @.str.759, ptr noundef %45)
  %46 = load i32, ptr %6, align 4
  %47 = add i32 %46, 3
  store i32 %47, ptr %6, align 4
  %48 = load i32, ptr %9, align 4
  %49 = sub i32 %48, 3
  store i32 %49, ptr %9, align 4
  %50 = load i32, ptr %9, align 4
  %51 = icmp ult i32 %50, 1
  br i1 %51, label %52, label %53

52:                                               ; preds = %27
  store i32 1, ptr %13, align 4
  br label %171

53:                                               ; preds = %27
  call void @llvm.lifetime.start.p0(i64 4, ptr %15) #4
  %54 = load ptr, ptr %5, align 8
  %55 = load i32, ptr %6, align 4
  %56 = call zeroext i8 @tvb_get_uint8(ptr noundef %54, i32 noundef %55)
  %57 = zext i8 %56 to i32
  store i32 %57, ptr %15, align 4
  %58 = load ptr, ptr %11, align 8
  %59 = load i32, ptr @hf_mpeg_descr_multilng_srv_name_desc_service_provider_name_length, align 4
  %60 = load ptr, ptr %5, align 8
  %61 = load i32, ptr %6, align 4
  %62 = call ptr @proto_tree_add_item(ptr noundef %58, i32 noundef %59, ptr noundef %60, i32 noundef %61, i32 noundef 1, i32 noundef 0)
  %63 = load i32, ptr %6, align 4
  %64 = add i32 %63, 1
  store i32 %64, ptr %6, align 4
  %65 = load i32, ptr %9, align 4
  %66 = sub i32 %65, 1
  store i32 %66, ptr %9, align 4
  %67 = load i32, ptr %15, align 4
  %68 = load i32, ptr %9, align 4
  %69 = icmp ult i32 %67, %68
  br i1 %69, label %70, label %72

70:                                               ; preds = %53
  %71 = load i32, ptr %15, align 4
  br label %74

72:                                               ; preds = %53
  %73 = load i32, ptr %9, align 4
  br label %74

74:                                               ; preds = %72, %70
  %75 = phi i32 [ %71, %70 ], [ %73, %72 ]
  store i32 %75, ptr %15, align 4
  %76 = load i32, ptr %9, align 4
  %77 = load i32, ptr %15, align 4
  %78 = icmp ult i32 %76, %77
  br i1 %78, label %79, label %80

79:                                               ; preds = %74
  store i32 1, ptr %13, align 4
  br label %170

80:                                               ; preds = %74
  call void @llvm.lifetime.start.p0(i64 4, ptr %16) #4
  call void @llvm.lifetime.start.p0(i64 4, ptr %17) #4
  %81 = load ptr, ptr %5, align 8
  %82 = load i32, ptr %6, align 4
  %83 = load i32, ptr %15, align 4
  %84 = call i32 @dvb_analyze_string_charset(ptr noundef %81, i32 noundef %82, i32 noundef %83, ptr noundef %16)
  store i32 %84, ptr %17, align 4
  %85 = load ptr, ptr %11, align 8
  %86 = load i32, ptr @hf_mpeg_descr_multilng_srv_name_desc_service_provider_name_encoding, align 4
  %87 = load ptr, ptr %5, align 8
  %88 = load i32, ptr %6, align 4
  %89 = load i32, ptr %17, align 4
  %90 = load i32, ptr %16, align 4
  call void @dvb_add_chartbl(ptr noundef %85, i32 noundef %86, ptr noundef %87, i32 noundef %88, i32 noundef %89, i32 noundef %90)
  %91 = load ptr, ptr %11, align 8
  %92 = load i32, ptr @hf_mpeg_descr_multilng_srv_name_desc_service_provider_name, align 4
  %93 = load ptr, ptr %5, align 8
  %94 = load i32, ptr %6, align 4
  %95 = load i32, ptr %17, align 4
  %96 = add i32 %94, %95
  %97 = load i32, ptr %15, align 4
  %98 = load i32, ptr %17, align 4
  %99 = sub i32 %97, %98
  %100 = load i32, ptr %16, align 4
  %101 = call i32 @dvb_enc_to_item_enc(i32 noundef %100)
  %102 = call ptr @proto_tree_add_item(ptr noundef %91, i32 noundef %92, ptr noundef %93, i32 noundef %96, i32 noundef %99, i32 noundef %101)
  %103 = load i32, ptr %15, align 4
  %104 = load i32, ptr %6, align 4
  %105 = add i32 %104, %103
  store i32 %105, ptr %6, align 4
  %106 = load i32, ptr %15, align 4
  %107 = load i32, ptr %9, align 4
  %108 = sub i32 %107, %106
  store i32 %108, ptr %9, align 4
  %109 = load i32, ptr %9, align 4
  %110 = icmp ult i32 %109, 1
  br i1 %110, label %111, label %112

111:                                              ; preds = %80
  store i32 1, ptr %13, align 4
  br label %169

112:                                              ; preds = %80
  call void @llvm.lifetime.start.p0(i64 4, ptr %18) #4
  %113 = load ptr, ptr %5, align 8
  %114 = load i32, ptr %6, align 4
  %115 = call zeroext i8 @tvb_get_uint8(ptr noundef %113, i32 noundef %114)
  %116 = zext i8 %115 to i32
  store i32 %116, ptr %18, align 4
  %117 = load ptr, ptr %11, align 8
  %118 = load i32, ptr @hf_mpeg_descr_multilng_srv_name_desc_service_name_length, align 4
  %119 = load ptr, ptr %5, align 8
  %120 = load i32, ptr %6, align 4
  %121 = call ptr @proto_tree_add_item(ptr noundef %117, i32 noundef %118, ptr noundef %119, i32 noundef %120, i32 noundef 1, i32 noundef 0)
  %122 = load i32, ptr %6, align 4
  %123 = add i32 %122, 1
  store i32 %123, ptr %6, align 4
  %124 = load i32, ptr %9, align 4
  %125 = sub i32 %124, 1
  store i32 %125, ptr %9, align 4
  %126 = load i32, ptr %18, align 4
  %127 = load i32, ptr %9, align 4
  %128 = icmp ult i32 %126, %127
  br i1 %128, label %129, label %131

129:                                              ; preds = %112
  %130 = load i32, ptr %18, align 4
  br label %133

131:                                              ; preds = %112
  %132 = load i32, ptr %9, align 4
  br label %133

133:                                              ; preds = %131, %129
  %134 = phi i32 [ %130, %129 ], [ %132, %131 ]
  store i32 %134, ptr %18, align 4
  %135 = load i32, ptr %9, align 4
  %136 = load i32, ptr %18, align 4
  %137 = icmp ult i32 %135, %136
  br i1 %137, label %138, label %139

138:                                              ; preds = %133
  store i32 1, ptr %13, align 4
  br label %168

139:                                              ; preds = %133
  %140 = load ptr, ptr %5, align 8
  %141 = load i32, ptr %6, align 4
  %142 = load i32, ptr %18, align 4
  %143 = call i32 @dvb_analyze_string_charset(ptr noundef %140, i32 noundef %141, i32 noundef %142, ptr noundef %16)
  store i32 %143, ptr %17, align 4
  %144 = load ptr, ptr %11, align 8
  %145 = load i32, ptr @hf_mpeg_descr_multilng_srv_name_desc_service_name_encoding, align 4
  %146 = load ptr, ptr %5, align 8
  %147 = load i32, ptr %6, align 4
  %148 = load i32, ptr %17, align 4
  %149 = load i32, ptr %16, align 4
  call void @dvb_add_chartbl(ptr noundef %144, i32 noundef %145, ptr noundef %146, i32 noundef %147, i32 noundef %148, i32 noundef %149)
  %150 = load ptr, ptr %11, align 8
  %151 = load i32, ptr @hf_mpeg_descr_multilng_srv_name_desc_service_name, align 4
  %152 = load ptr, ptr %5, align 8
  %153 = load i32, ptr %6, align 4
  %154 = load i32, ptr %17, align 4
  %155 = add i32 %153, %154
  %156 = load i32, ptr %18, align 4
  %157 = load i32, ptr %17, align 4
  %158 = sub i32 %156, %157
  %159 = load i32, ptr %16, align 4
  %160 = call i32 @dvb_enc_to_item_enc(i32 noundef %159)
  %161 = call ptr @proto_tree_add_item(ptr noundef %150, i32 noundef %151, ptr noundef %152, i32 noundef %155, i32 noundef %158, i32 noundef %160)
  %162 = load i32, ptr %18, align 4
  %163 = load i32, ptr %6, align 4
  %164 = add i32 %163, %162
  store i32 %164, ptr %6, align 4
  %165 = load i32, ptr %18, align 4
  %166 = load i32, ptr %9, align 4
  %167 = sub i32 %166, %165
  store i32 %167, ptr %9, align 4
  store i32 0, ptr %13, align 4
  br label %168

168:                                              ; preds = %139, %138
  call void @llvm.lifetime.end.p0(i64 4, ptr %18) #4
  br label %169

169:                                              ; preds = %168, %111
  call void @llvm.lifetime.end.p0(i64 4, ptr %17) #4
  call void @llvm.lifetime.end.p0(i64 4, ptr %16) #4
  br label %170

170:                                              ; preds = %169, %79
  call void @llvm.lifetime.end.p0(i64 4, ptr %15) #4
  br label %171

171:                                              ; preds = %170, %52
  call void @llvm.lifetime.end.p0(i64 4, ptr %14) #4
  br label %172

172:                                              ; preds = %171, %26
  call void @llvm.lifetime.end.p0(i64 8, ptr %12) #4
  call void @llvm.lifetime.end.p0(i64 8, ptr %11) #4
  call void @llvm.lifetime.end.p0(i64 8, ptr %10) #4
  %173 = load i32, ptr %13, align 4
  switch i32 %173, label %176 [
    i32 0, label %174
  ]

174:                                              ; preds = %172
  br label %20, !llvm.loop !24

175:                                              ; preds = %20
  store i32 0, ptr %13, align 4
  br label %176

176:                                              ; preds = %175, %172
  call void @llvm.lifetime.end.p0(i64 4, ptr %9) #4
  %177 = load i32, ptr %13, align 4
  switch i32 %177, label %179 [
    i32 0, label %178
    i32 1, label %178
  ]

178:                                              ; preds = %176, %176
  ret void

179:                                              ; preds = %176
  unreachable
}