; Function Attrs: null_pointer_is_valid sspstrong uwtable
define internal fastcc void @proto_mpeg_descriptor_dissect_multilng_srv_name_desc(ptr noundef %0, i32 noundef %1, i32 noundef range(i32 1, 256) %2, ptr noundef %3) unnamed_addr #1 {
  %5 = alloca ptr, align 8
  %6 = alloca ptr, align 8
  %7 = alloca i32, align 4
  br label %8

8:                                                ; preds = %4, %54
  %.0100 = phi i32 [ %1, %4 ], [ %74, %54 ]
  %.08299 = phi i32 [ %2, %4 ], [ %73, %54 ]
  call void @llvm.lifetime.start.p0(i64 8, ptr nonnull %5) #5
  call void @llvm.lifetime.start.p0(i64 8, ptr nonnull %6) #5
  %9 = icmp ult i32 %.08299, 3
  br i1 %9, label %.loopexit.sink.split, label %10

10:                                               ; preds = %8
  %11 = icmp eq i32 %.08299, 3
  br i1 %11, label %proto_mpeg_descriptor_dissect_multilng_srv_name_desc_measure_lng_len.exit, label %12

12:                                               ; preds = %10
  %13 = add i32 %.0100, 3
  %14 = call zeroext i8 @tvb_get_uint8(ptr noundef %0, i32 noundef %13)
  %15 = zext i8 %14 to i32
  %16 = add i32 %.08299, -4
  %17 = add i32 %.0100, 4
  %18 = call i32 @llvm.umin.i32(i32 %16, i32 %15)
  %19 = add i32 %17, %18
  %.not.i = icmp ugt i32 %16, %15
  br i1 %.not.i, label %20, label %28

20:                                               ; preds = %12
  %21 = call zeroext i8 @tvb_get_uint8(ptr noundef %0, i32 noundef %19)
  %22 = zext i8 %21 to i32
  %23 = xor i32 %18, -1
  %24 = add i32 %16, %23
  %25 = add i32 %19, 1
  %26 = call i32 @llvm.umin.i32(i32 %24, i32 %22)
  %27 = add i32 %25, %26
  br label %28

28:                                               ; preds = %20, %12
  %.pn.i = phi i32 [ %27, %20 ], [ %19, %12 ]
  %.1.i = sub i32 %.pn.i, %.0100
  br label %proto_mpeg_descriptor_dissect_multilng_srv_name_desc_measure_lng_len.exit

proto_mpeg_descriptor_dissect_multilng_srv_name_desc_measure_lng_len.exit: ; preds = %10, %28
  %.0.i = phi i32 [ %.1.i, %28 ], [ 3, %10 ]
  %29 = load i32, ptr @ett_mpeg_descriptor_multilng_srv_name_desc_lng, align 4
  %30 = call ptr @proto_tree_add_subtree(ptr noundef %3, ptr noundef %0, i32 noundef %.0100, i32 noundef %.0.i, i32 noundef %29, ptr noundef nonnull %6, ptr noundef null)
  %31 = load i32, ptr @hf_mpeg_descr_multilng_srv_name_desc_iso639_language_code, align 4
  %32 = call ptr @wmem_packet_scope()
  %33 = call ptr @proto_tree_add_item_ret_display_string(ptr noundef %30, i32 noundef %31, ptr noundef %0, i32 noundef %.0100, i32 noundef 3, i32 noundef 0, ptr noundef %32, ptr noundef nonnull %5)
  %34 = load ptr, ptr %6, align 8
  %35 = load ptr, ptr %5, align 8
  call void (ptr, ptr, ...) @proto_item_set_text(ptr noundef %34, ptr noundef nonnull @.str.759, ptr noundef %35)
  br i1 %11, label %.loopexit.sink.split, label %36

36:                                               ; preds = %proto_mpeg_descriptor_dissect_multilng_srv_name_desc_measure_lng_len.exit
  %37 = add i32 %.0100, 3
  %38 = call zeroext i8 @tvb_get_uint8(ptr noundef %0, i32 noundef %37)
  %39 = load i32, ptr @hf_mpeg_descr_multilng_srv_name_desc_service_provider_name_length, align 4
  %40 = call ptr @proto_tree_add_item(ptr noundef %30, i32 noundef %39, ptr noundef %0, i32 noundef %37, i32 noundef 1, i32 noundef 0)
  %41 = zext i8 %38 to i32
  %42 = add i32 %.08299, -4
  %43 = call i32 @llvm.umin.i32(i32 %42, i32 %41)
  %44 = add i32 %.0100, 4
  call void @llvm.lifetime.start.p0(i64 4, ptr nonnull %7) #5
  %45 = call i32 @dvb_analyze_string_charset(ptr noundef %0, i32 noundef %44, i32 noundef %43, ptr noundef nonnull %7)
  %46 = load i32, ptr @hf_mpeg_descr_multilng_srv_name_desc_service_provider_name_encoding, align 4
  %47 = load i32, ptr %7, align 4
  call void @dvb_add_chartbl(ptr noundef %30, i32 noundef %46, ptr noundef %0, i32 noundef %44, i32 noundef %45, i32 noundef %47)
  %48 = load i32, ptr @hf_mpeg_descr_multilng_srv_name_desc_service_provider_name, align 4
  %49 = add i32 %45, %44
  %50 = sub i32 %43, %45
  %51 = load i32, ptr %7, align 4
  %52 = call i32 @dvb_enc_to_item_enc(i32 noundef %51)
  %53 = call ptr @proto_tree_add_item(ptr noundef %30, i32 noundef %48, ptr noundef %0, i32 noundef %49, i32 noundef %50, i32 noundef %52)
  %.not92 = icmp ugt i32 %42, %41
  br i1 %.not92, label %54, label %.thread96

.thread96:                                        ; preds = %36
  call void @llvm.lifetime.end.p0(i64 4, ptr nonnull %7) #5
  br label %.loopexit.sink.split

54:                                               ; preds = %36
  %55 = add i32 %43, %44
  %56 = call zeroext i8 @tvb_get_uint8(ptr noundef %0, i32 noundef %55)
  %57 = load i32, ptr @hf_mpeg_descr_multilng_srv_name_desc_service_name_length, align 4
  %58 = call ptr @proto_tree_add_item(ptr noundef %30, i32 noundef %57, ptr noundef %0, i32 noundef %55, i32 noundef 1, i32 noundef 0)
  %59 = zext i8 %56 to i32
  %60 = xor i32 %43, -1
  %61 = add i32 %42, %60
  %62 = call i32 @llvm.umin.i32(i32 %61, i32 %59)
  %63 = add i32 %55, 1
  %64 = call i32 @dvb_analyze_string_charset(ptr noundef %0, i32 noundef %63, i32 noundef %62, ptr noundef nonnull %7)
  %65 = load i32, ptr @hf_mpeg_descr_multilng_srv_name_desc_service_name_encoding, align 4
  %66 = load i32, ptr %7, align 4
  call void @dvb_add_chartbl(ptr noundef %30, i32 noundef %65, ptr noundef %0, i32 noundef %63, i32 noundef %64, i32 noundef %66)
  %67 = load i32, ptr @hf_mpeg_descr_multilng_srv_name_desc_service_name, align 4
  %68 = add i32 %64, %63
  %69 = sub i32 %62, %64
  %70 = load i32, ptr %7, align 4
  %71 = call i32 @dvb_enc_to_item_enc(i32 noundef %70)
  %72 = call ptr @proto_tree_add_item(ptr noundef %30, i32 noundef %67, ptr noundef %0, i32 noundef %68, i32 noundef %69, i32 noundef %71)
  %73 = sub i32 %61, %62
  %74 = add i32 %62, %63
  call void @llvm.lifetime.end.p0(i64 4, ptr nonnull %7) #5
  call void @llvm.lifetime.end.p0(i64 8, ptr nonnull %6) #5
  call void @llvm.lifetime.end.p0(i64 8, ptr nonnull %5) #5
  %.not = icmp eq i32 %73, 0
  br i1 %.not, label %.loopexit, label %8

.loopexit.sink.split:                             ; preds = %proto_mpeg_descriptor_dissect_multilng_srv_name_desc_measure_lng_len.exit, %8, %.thread96
  call void @llvm.lifetime.end.p0(i64 8, ptr nonnull %6) #5
  call void @llvm.lifetime.end.p0(i64 8, ptr nonnull %5) #5
  br label %.loopexit

.loopexit:                                        ; preds = %54, %.loopexit.sink.split
  ret void
}